; Function Attrs: mustprogress nounwind uwtable
define void @_ZN5boost3log11v2_mt_posix3aux18atomic_based_event13set_signalledEv(ptr noundef nonnull align 4 dereferenceable(4) %0) local_unnamed_addr #0 align 2 {
  %2 = load atomic volatile i32, ptr %0 monotonic, align 4
  %.not = icmp eq i32 %2, 0
  br i1 %.not, label %3, label %_ZN5boost7atomics6detail27fence_operations_gcc_atomic12thread_fenceENS_12memory_orderE.exit

_ZN5boost7atomics6detail27fence_operations_gcc_atomic12thread_fenceENS_12memory_orderE.exit: ; preds = %1
  fence release
  br label %8

3:                                                ; preds = %1
  %4 = atomicrmw volatile xchg ptr %0, i32 1 release, align 4
  %5 = icmp eq i32 %4, 0
  br i1 %5, label %6, label %8

6:                                                ; preds = %3
  %7 = tail call i64 (i64, ...) @syscall(i64 noundef 202, ptr noundef nonnull align 4 dereferenceable(4) %0, i32 noundef 129, i32 noundef 1, ptr noundef null, ptr noundef null, i32 noundef 0) #2
  br label %8

8:                                                ; preds = %3, %6, %_ZN5boost7atomics6detail27fence_operations_gcc_atomic12thread_fenceENS_12memory_orderE.exit
  ret void
}